target datalayout = "e-m:e-p270:32:32-p271:32:32-p272:64:64-i64:64-i128:128-f80:128-n8:16:32:64-S128"
target triple = "x86_64-pc-linux-gnu"

%struct.nodeElt_s = type { i32, i16, i8, i8 }

; Function Attrs: nounwind uwtable
define internal void @HUF_swapNodes(ptr noundef %0, ptr noundef %1) #0 {
  %3 = alloca ptr, align 8
  %4 = alloca ptr, align 8
  %5 = alloca %struct.nodeElt_s, align 4
  store ptr %0, ptr %3, align 8, !tbaa !32
  store ptr %1, ptr %4, align 8, !tbaa !32
  call void @llvm.lifetime.start.p0(i64 8, ptr %5) #9
  %6 = load ptr, ptr %3, align 8, !tbaa !32
  call void @llvm.memcpy.p0.p0.i64(ptr align 4 %5, ptr align 4 %6, i64 8, i1 false), !tbaa.struct !68
  %7 = load ptr, ptr %3, align 8, !tbaa !32
  %8 = load ptr, ptr %4, align 8, !tbaa !32
  call void @llvm.memcpy.p0.p0.i64(ptr align 4 %7, ptr align 4 %8, i64 8, i1 false), !tbaa.struct !68
  %9 = load ptr, ptr %4, align 8, !tbaa !32
  call void @llvm.memcpy.p0.p0.i64(ptr align 4 %9, ptr align 4 %5, i64 8, i1 false), !tbaa.struct !68
  call void @llvm.lifetime.end.p0(i64 8, ptr %5) #9
  ret void
}

; Function Attrs: nounwind uwtable
define internal i32 @HUF_quickSortPartition(ptr noundef %0, i32 noundef %1, i32 noundef %2) #0 {
  %4 = alloca ptr, align 8
  %5 = alloca i32, align 4
  %6 = alloca i32, align 4
  %7 = alloca i32, align 4
  %8 = alloca i32, align 4
  %9 = alloca i32, align 4
  store ptr %0, ptr %4, align 8, !tbaa !32
  store i32 %1, ptr %5, align 4, !tbaa !11
  store i32 %2, ptr %6, align 4, !tbaa !11
  call void @llvm.lifetime.start.p0(i64 4, ptr %7) #9
  %10 = load ptr, ptr %4, align 8, !tbaa !32
  %11 = load i32, ptr %6, align 4, !tbaa !11
  %12 = sext i32 %11 to i64
  %13 = getelementptr inbounds %struct.nodeElt_s, ptr %10, i64 %12
  %14 = getelementptr inbounds nuw %struct.nodeElt_s, ptr %13, i32 0, i32 0
  %15 = load i32, ptr %14, align 4, !tbaa !39
  store i32 %15, ptr %7, align 4, !tbaa !11
  call void @llvm.lifetime.start.p0(i64 4, ptr %8) #9
  %16 = load i32, ptr %5, align 4, !tbaa !11
  %17 = sub nsw i32 %16, 1
  store i32 %17, ptr %8, align 4, !tbaa !11
  call void @llvm.lifetime.start.p0(i64 4, ptr %9) #9
  %18 = load i32, ptr %5, align 4, !tbaa !11
  store i32 %18, ptr %9, align 4, !tbaa !11
  br label %19

19:                                               ; preds = %44, %3
  %20 = load i32, ptr %9, align 4, !tbaa !11
  %21 = load i32, ptr %6, align 4, !tbaa !11
  %22 = icmp slt i32 %20, %21
  br i1 %22, label %23, label %47

23:                                               ; preds = %19
  %24 = load ptr, ptr %4, align 8, !tbaa !32
  %25 = load i32, ptr %9, align 4, !tbaa !11
  %26 = sext i32 %25 to i64
  %27 = getelementptr inbounds %struct.nodeElt_s, ptr %24, i64 %26
  %28 = getelementptr inbounds nuw %struct.nodeElt_s, ptr %27, i32 0, i32 0
  %29 = load i32, ptr %28, align 4, !tbaa !39
  %30 = load i32, ptr %7, align 4, !tbaa !11
  %31 = icmp ugt i32 %29, %30
  br i1 %31, label %32, label %43

32:                                               ; preds = %23
  %33 = load i32, ptr %8, align 4, !tbaa !11
  %34 = add nsw i32 %33, 1
  store i32 %34, ptr %8, align 4, !tbaa !11
  %35 = load ptr, ptr %4, align 8, !tbaa !32
  %36 = load i32, ptr %8, align 4, !tbaa !11
  %37 = sext i32 %36 to i64
  %38 = getelementptr inbounds %struct.nodeElt_s, ptr %35, i64 %37
  %39 = load ptr, ptr %4, align 8, !tbaa !32
  %40 = load i32, ptr %9, align 4, !tbaa !11
  %41 = sext i32 %40 to i64
  %42 = getelementptr inbounds %struct.nodeElt_s, ptr %39, i64 %41
  call void @HUF_swapNodes(ptr noundef %38, ptr noundef %42)
  br label %43

43:                                               ; preds = %32, %23
  br label %44

44:                                               ; preds = %43
  %45 = load i32, ptr %9, align 4, !tbaa !11
  %46 = add nsw i32 %45, 1
  store i32 %46, ptr %9, align 4, !tbaa !11
  br label %19, !llvm.loop !71

47:                                               ; preds = %19
  %48 = load ptr, ptr %4, align 8, !tbaa !32
  %49 = load i32, ptr %8, align 4, !tbaa !11
  %50 = add nsw i32 %49, 1
  %51 = sext i32 %50 to i64
  %52 = getelementptr inbounds %struct.nodeElt_s, ptr %48, i64 %51
  %53 = load ptr, ptr %4, align 8, !tbaa !32
  %54 = load i32, ptr %6, align 4, !tbaa !11
  %55 = sext i32 %54 to i64
  %56 = getelementptr inbounds %struct.nodeElt_s, ptr %53, i64 %55
  call void @HUF_swapNodes(ptr noundef %52, ptr noundef %56)
  %57 = load i32, ptr %8, align 4, !tbaa !11
  %58 = add nsw i32 %57, 1
  call void @llvm.lifetime.end.p0(i64 4, ptr %9) #9
  call void @llvm.lifetime.end.p0(i64 4, ptr %8) #9
  call void @llvm.lifetime.end.p0(i64 4, ptr %7) #9
  ret i32 %58
}

; Function Attrs: alwaysinline nounwind uwtable
define internal void @HUF_insertionSort(ptr noundef %0, i32 noundef %1, i32 noundef %2) #6 {
  %4 = alloca ptr, align 8
  %5 = alloca i32, align 4
  %6 = alloca i32, align 4
  %7 = alloca i32, align 4
  %8 = alloca i32, align 4
  %9 = alloca %struct.nodeElt_s, align 4
  %10 = alloca i32, align 4
  store ptr %0, ptr %4, align 8, !tbaa !32
  store i32 %1, ptr %5, align 4, !tbaa !11
  store i32 %2, ptr %6, align 4, !tbaa !11
  call void @llvm.lifetime.start.p0(i64 4, ptr %7) #9
  call void @llvm.lifetime.start.p0(i64 4, ptr %8) #9
  %11 = load i32, ptr %6, align 4, !tbaa !11
  %12 = load i32, ptr %5, align 4, !tbaa !11
  %13 = sub nsw i32 %11, %12
  %14 = add nsw i32 %13, 1
  store i32 %14, ptr %8, align 4, !tbaa !11
  %15 = load i32, ptr %5, align 4, !tbaa !11
  %16 = load ptr, ptr %4, align 8, !tbaa !32
  %17 = sext i32 %15 to i64
  %18 = getelementptr inbounds %struct.nodeElt_s, ptr %16, i64 %17
  store ptr %18, ptr %4, align 8, !tbaa !32
  store i32 1, ptr %7, align 4, !tbaa !11
  br label %19

19:                                               ; preds = %63, %3
  %20 = load i32, ptr %7, align 4, !tbaa !11
  %21 = load i32, ptr %8, align 4, !tbaa !11
  %22 = icmp slt i32 %20, %21
  br i1 %22, label %23, label %66

23:                                               ; preds = %19
  call void @llvm.lifetime.start.p0(i64 8, ptr %9) #9
  %24 = load ptr, ptr %4, align 8, !tbaa !32
  %25 = load i32, ptr %7, align 4, !tbaa !11
  %26 = sext i32 %25 to i64
  %27 = getelementptr inbounds %struct.nodeElt_s, ptr %24, i64 %26
  call void @llvm.memcpy.p0.p0.i64(ptr align 4 %9, ptr align 4 %27, i64 8, i1 false), !tbaa.struct !68
  call void @llvm.lifetime.start.p0(i64 4, ptr %10) #9
  %28 = load i32, ptr %7, align 4, !tbaa !11
  %29 = sub nsw i32 %28, 1
  store i32 %29, ptr %10, align 4, !tbaa !11
  br label %30

30:                                               ; preds = %45, %23
  %31 = load i32, ptr %10, align 4, !tbaa !11
  %32 = icmp sge i32 %31, 0
  br i1 %32, label %33, label %43

33:                                               ; preds = %30
  %34 = load ptr, ptr %4, align 8, !tbaa !32
  %35 = load i32, ptr %10, align 4, !tbaa !11
  %36 = sext i32 %35 to i64
  %37 = getelementptr inbounds %struct.nodeElt_s, ptr %34, i64 %36
  %38 = getelementptr inbounds nuw %struct.nodeElt_s, ptr %37, i32 0, i32 0
  %39 = load i32, ptr %38, align 4, !tbaa !39
  %40 = getelementptr inbounds nuw %struct.nodeElt_s, ptr %9, i32 0, i32 0
  %41 = load i32, ptr %40, align 4, !tbaa !39
  %42 = icmp ult i32 %39, %41
  br label %43

43:                                               ; preds = %33, %30
  %44 = phi i1 [ false, %30 ], [ %42, %33 ]
  br i1 %44, label %45, label %57

45:                                               ; preds = %43
  %46 = load ptr, ptr %4, align 8, !tbaa !32
  %47 = load i32, ptr %10, align 4, !tbaa !11
  %48 = add nsw i32 %47, 1
  %49 = sext i32 %48 to i64
  %50 = getelementptr inbounds %struct.nodeElt_s, ptr %46, i64 %49
  %51 = load ptr, ptr %4, align 8, !tbaa !32
  %52 = load i32, ptr %10, align 4, !tbaa !11
  %53 = sext i32 %52 to i64
  %54 = getelementptr inbounds %struct.nodeElt_s, ptr %51, i64 %53
  call void @llvm.memcpy.p0.p0.i64(ptr align 4 %50, ptr align 4 %54, i64 8, i1 false), !tbaa.struct !68
  %55 = load i32, ptr %10, align 4, !tbaa !11
  %56 = add nsw i32 %55, -1
  store i32 %56, ptr %10, align 4, !tbaa !11
  br label %30, !llvm.loop !69

57:                                               ; preds = %43
  %58 = load ptr, ptr %4, align 8, !tbaa !32
  %59 = load i32, ptr %10, align 4, !tbaa !11
  %60 = add nsw i32 %59, 1
  %61 = sext i32 %60 to i64
  %62 = getelementptr inbounds %struct.nodeElt_s, ptr %58, i64 %61
  call void @llvm.memcpy.p0.p0.i64(ptr align 4 %62, ptr align 4 %9, i64 8, i1 false), !tbaa.struct !68
  call void @llvm.lifetime.end.p0(i64 4, ptr %10) #9
  call void @llvm.lifetime.end.p0(i64 8, ptr %9) #9
  br label %63

63:                                               ; preds = %57
  %64 = load i32, ptr %7, align 4, !tbaa !11
  %65 = add nsw i32 %64, 1
  store i32 %65, ptr %7, align 4, !tbaa !11
  br label %19, !llvm.loop !70

66:                                               ; preds = %19
  call void @llvm.lifetime.end.p0(i64 4, ptr %8) #9
  call void @llvm.lifetime.end.p0(i64 4, ptr %7) #9
  ret void
}

; Function Attrs: nounwind uwtable
define internal void @HUF_simpleQuickSort(ptr noundef %0, i32 noundef %1, i32 noundef %2) #0 {
  %4 = alloca ptr, align 8
  %5 = alloca i32, align 4
  %6 = alloca i32, align 4
  %7 = alloca i32, align 4
  %8 = alloca i32, align 4
  %9 = alloca i32, align 4
  store ptr %0, ptr %4, align 8, !tbaa !32
  store i32 %1, ptr %5, align 4, !tbaa !11
  store i32 %2, ptr %6, align 4, !tbaa !11
  call void @llvm.lifetime.start.p0(i64 4, ptr %7) #9
  store i32 8, ptr %7, align 4, !tbaa !11
  %10 = load i32, ptr %6, align 4, !tbaa !11
  %11 = load i32, ptr %5, align 4, !tbaa !11
  %12 = sub nsw i32 %10, %11
  %13 = icmp slt i32 %12, 8
  br i1 %13, label %14, label %18

14:                                               ; preds = %3
  %15 = load ptr, ptr %4, align 8, !tbaa !32
  %16 = load i32, ptr %5, align 4, !tbaa !11
  %17 = load i32, ptr %6, align 4, !tbaa !11
  call void @HUF_insertionSort(ptr noundef %15, i32 noundef %16, i32 noundef %17)
  store i32 1, ptr %8, align 4
  br label %51

18:                                               ; preds = %3
  br label %19

19:                                               ; preds = %49, %18
  %20 = load i32, ptr %5, align 4, !tbaa !11
  %21 = load i32, ptr %6, align 4, !tbaa !11
  %22 = icmp slt i32 %20, %21
  br i1 %22, label %23, label %50

23:                                               ; preds = %19
  call void @llvm.lifetime.start.p0(i64 4, ptr %9) #9
  %24 = load ptr, ptr %4, align 8, !tbaa !32
  %25 = load i32, ptr %5, align 4, !tbaa !11
  %26 = load i32, ptr %6, align 4, !tbaa !11
  %27 = call i32 @HUF_quickSortPartition(ptr noundef %24, i32 noundef %25, i32 noundef %26)
  store i32 %27, ptr %9, align 4, !tbaa !11
  %28 = load i32, ptr %9, align 4, !tbaa !11
  %29 = load i32, ptr %5, align 4, !tbaa !11
  %30 = sub nsw i32 %28, %29
  %31 = load i32, ptr %6, align 4, !tbaa !11
  %32 = load i32, ptr %9, align 4, !tbaa !11
  %33 = sub nsw i32 %31, %32
  %34 = icmp slt i32 %30, %33
  br i1 %34, label %35, label %42

35:                                               ; preds = %23
  %36 = load ptr, ptr %4, align 8, !tbaa !32
  %37 = load i32, ptr %5, align 4, !tbaa !11
  %38 = load i32, ptr %9, align 4, !tbaa !11
  %39 = sub nsw i32 %38, 1
  call void @HUF_simpleQuickSort(ptr noundef %36, i32 noundef %37, i32 noundef %39)
  %40 = load i32, ptr %9, align 4, !tbaa !11
  %41 = add nsw i32 %40, 1
  store i32 %41, ptr %5, align 4, !tbaa !11
  br label %49

42:                                               ; preds = %23
  %43 = load ptr, ptr %4, align 8, !tbaa !32
  %44 = load i32, ptr %9, align 4, !tbaa !11
  %45 = add nsw i32 %44, 1
  %46 = load i32, ptr %6, align 4, !tbaa !11
  call void @HUF_simpleQuickSort(ptr noundef %43, i32 noundef %45, i32 noundef %46)
  %47 = load i32, ptr %9, align 4, !tbaa !11
  %48 = sub nsw i32 %47, 1
  store i32 %48, ptr %6, align 4, !tbaa !11
  br label %49

49:                                               ; preds = %42, %35
  call void @llvm.lifetime.end.p0(i64 4, ptr %9) #9
  br label %19, !llvm.loop !67

50:                                               ; preds = %19
  store i32 0, ptr %8, align 4
  br label %51

51:                                               ; preds = %50, %14
  call void @llvm.lifetime.end.p0(i64 4, ptr %7) #9
  %52 = load i32, ptr %8, align 4
  switch i32 %52, label %54 [
    i32 0, label %53
    i32 1, label %53
  ]

53:                                               ; preds = %51, %51
  ret void

54:                                               ; preds = %51
  unreachable
}