; Function Attrs: nofree nosync nounwind memory(argmem: readwrite) uwtable
define internal fastcc void @HUF_simpleQuickSort(ptr noundef %0, i32 noundef range(i32 -2147483646, -2147483648) %1, i32 noundef range(i32 -2147483648, 2147483647) %2) unnamed_addr #10 {
  %4 = sub nsw i32 %2, %1
  %5 = icmp slt i32 %4, 8
  br i1 %5, label %7, label %.preheader

.preheader:                                       ; preds = %3
  %6 = icmp slt i32 %1, %2
  br i1 %6, label %.lr.ph.preheader.i, label %HUF_insertionSort.exit

7:                                                ; preds = %3
  %8 = sext i32 %1 to i64
  %9 = getelementptr inbounds %struct.nodeElt_s, ptr %0, i64 %8
  %.not.i29 = icmp slt i32 %4, 1
  br i1 %.not.i29, label %HUF_insertionSort.exit, label %.lr.ph.preheader

.lr.ph.preheader:                                 ; preds = %7
  %10 = add nsw i32 %2, 1
  %11 = sub i32 %10, %1
  %wide.trip.count = zext i32 %11 to i64
  br label %.lr.ph

.lr.ph:                                           ; preds = %.lr.ph.preheader, %.critedge.i
  %indvars.iv = phi i64 [ 1, %.lr.ph.preheader ], [ %indvars.iv.next, %.critedge.i ]
  %12 = getelementptr inbounds nuw %struct.nodeElt_s, ptr %9, i64 %indvars.iv
  %.sroa.0.0.copyload.i = load i32, ptr %12, align 4, !tbaa !11
  %.sroa.5.0..sroa_idx.i = getelementptr inbounds nuw i8, ptr %12, i64 4
  %13 = load i32, ptr %.sroa.5.0..sroa_idx.i, align 4
  br label %14

14:                                               ; preds = %.lr.ph, %18
  %indvars.iv32 = phi i64 [ %indvars.iv, %.lr.ph ], [ %indvars.iv.next33, %18 ]
  %indvars.iv.next33 = add nsw i64 %indvars.iv32, -1
  %15 = getelementptr inbounds nuw %struct.nodeElt_s, ptr %9, i64 %indvars.iv.next33
  %16 = load i32, ptr %15, align 4, !tbaa !26
  %17 = icmp ult i32 %16, %.sroa.0.0.copyload.i
  br i1 %17, label %18, label %.critedge.i

18:                                               ; preds = %14
  %19 = getelementptr inbounds nuw %struct.nodeElt_s, ptr %9, i64 %indvars.iv32
  %20 = load i64, ptr %15, align 4
  store i64 %20, ptr %19, align 4
  %21 = icmp sgt i64 %indvars.iv32, 1
  br i1 %21, label %14, label %.critedge.i, !llvm.loop !59

.critedge.i:                                      ; preds = %14, %18
  %.0.in.i.lcssa = phi i64 [ %indvars.iv32, %14 ], [ 0, %18 ]
  %sext = shl i64 %.0.in.i.lcssa, 32
  %22 = ashr exact i64 %sext, 29
  %23 = getelementptr inbounds i8, ptr %9, i64 %22
  store i32 %.sroa.0.0.copyload.i, ptr %23, align 4, !tbaa !11
  %.sroa.5.0..sroa_idx7.i = getelementptr inbounds nuw i8, ptr %23, i64 4
  store i32 %13, ptr %.sroa.5.0..sroa_idx7.i, align 4
  %indvars.iv.next = add nuw nsw i64 %indvars.iv, 1
  %exitcond.not = icmp eq i64 %indvars.iv.next, %wide.trip.count
  br i1 %exitcond.not, label %HUF_insertionSort.exit, label %.lr.ph, !llvm.loop !60

.lr.ph.preheader.i:                               ; preds = %.preheader, %51
  %.025 = phi i32 [ %.1, %51 ], [ %1, %.preheader ]
  %.02124 = phi i32 [ %.122, %51 ], [ %2, %.preheader ]
  %24 = sext i32 %.02124 to i64
  %25 = getelementptr inbounds %struct.nodeElt_s, ptr %0, i64 %24
  %26 = load i32, ptr %25, align 4, !tbaa !26
  %27 = add nsw i32 %.025, -1
  %28 = sext i32 %.025 to i64
  br label %.lr.ph.i

.lr.ph.i:                                         ; preds = %38, %.lr.ph.preheader.i
  %indvars.iv.i = phi i64 [ %28, %.lr.ph.preheader.i ], [ %indvars.iv.next.i, %38 ]
  %.01920.i = phi i32 [ %27, %.lr.ph.preheader.i ], [ %.1.i, %38 ]
  %29 = getelementptr inbounds %struct.nodeElt_s, ptr %0, i64 %indvars.iv.i
  %30 = load i32, ptr %29, align 4, !tbaa !26
  %31 = icmp ugt i32 %30, %26
  br i1 %31, label %32, label %38

32:                                               ; preds = %.lr.ph.i
  %33 = add nsw i32 %.01920.i, 1
  %34 = sext i32 %33 to i64
  %35 = getelementptr inbounds %struct.nodeElt_s, ptr %0, i64 %34
  %36 = load i64, ptr %35, align 4
  %37 = load i64, ptr %29, align 4
  store i64 %37, ptr %35, align 4
  store i64 %36, ptr %29, align 4
  br label %38

38:                                               ; preds = %32, %.lr.ph.i
  %.1.i = phi i32 [ %33, %32 ], [ %.01920.i, %.lr.ph.i ]
  %indvars.iv.next.i = add nsw i64 %indvars.iv.i, 1
  %exitcond.not.i = icmp eq i64 %indvars.iv.next.i, %24
  br i1 %exitcond.not.i, label %HUF_quickSortPartition.exit, label %.lr.ph.i, !llvm.loop !61

HUF_quickSortPartition.exit:                      ; preds = %38
  %39 = add nsw i32 %.1.i, 1
  %40 = sext i32 %39 to i64
  %41 = getelementptr inbounds %struct.nodeElt_s, ptr %0, i64 %40
  %42 = load i64, ptr %41, align 4
  %43 = load i64, ptr %25, align 4
  store i64 %43, ptr %41, align 4
  store i64 %42, ptr %25, align 4
  %44 = sub nsw i32 %39, %.025
  %45 = sub nsw i32 %.02124, %39
  %46 = icmp slt i32 %44, %45
  br i1 %46, label %47, label %49

47:                                               ; preds = %HUF_quickSortPartition.exit
  tail call fastcc void @HUF_simpleQuickSort(ptr noundef nonnull %0, i32 noundef %.025, i32 noundef %.1.i)
  %48 = add nsw i32 %.1.i, 2
  br label %51

49:                                               ; preds = %HUF_quickSortPartition.exit
  %50 = add nsw i32 %.1.i, 2
  tail call fastcc void @HUF_simpleQuickSort(ptr noundef nonnull %0, i32 noundef %50, i32 noundef %.02124)
  br label %51

51:                                               ; preds = %49, %47
  %.122 = phi i32 [ %.02124, %47 ], [ %.1.i, %49 ]
  %.1 = phi i32 [ %48, %47 ], [ %.025, %49 ]
  %52 = icmp slt i32 %.1, %.122
  br i1 %52, label %.lr.ph.preheader.i, label %HUF_insertionSort.exit, !llvm.loop !62

HUF_insertionSort.exit:                           ; preds = %51, %.critedge.i, %.preheader, %7
  ret void
}